; Function Attrs: nounwind uwtable
define dso_local void @list_sort(ptr noundef readonly captures(address_is_null) %0, ptr noundef %1) local_unnamed_addr #0 {
  %.not.i = icmp eq ptr %0, null
  br i1 %.not.i, label %list_length.exit.thread, label %list_length.exit

list_length.exit:                                 ; preds = %2
  %3 = getelementptr inbounds nuw i8, ptr %0, i64 4
  %4 = load i32, ptr %3, align 4
  %5 = icmp sgt i32 %4, 1
  br i1 %5, label %6, label %list_length.exit.thread

6:                                                ; preds = %list_length.exit
  %7 = getelementptr inbounds nuw i8, ptr %0, i64 16
  %8 = load ptr, ptr %7, align 8
  %9 = zext nneg i32 %4 to i64
  tail call void @pg_qsort(ptr noundef %8, i64 noundef %9, i64 noundef 8, ptr noundef %1) #9
  br label %list_length.exit.thread

list_length.exit.thread:                          ; preds = %2, %6, %list_length.exit
  ret void
}